; ModuleID = 'source-C-CXX/25/954.c'
source_filename = "source-C-CXX/25/954.c"
target datalayout = "e-m:e-p270:32:32-p271:32:32-p272:64:64-i64:64-f80:128-n8:16:32:64-S128"
target triple = "x86_64-pc-linux-gnu"

; Function Attrs: nounwind sspstrong uwtable
define dso_local i32 @main() local_unnamed_addr #0 {
  %1 = alloca [101 x i8], align 16
  %2 = getelementptr inbounds [101 x i8], [101 x i8]* %1, i64 0, i64 0
  call void @llvm.lifetime.start.p0i8(i64 101, i8* nonnull %2) #4
  %3 = call i32 (i8*, ...) bitcast (i32 (...)* @gets to i32 (i8*, ...)*)(i8* nonnull %2) #4
  %4 = load i8, i8* %2, align 16, !tbaa !5
  %5 = icmp eq i8 %4, 0
  br i1 %5, label %6, label %8

6:                                                ; preds = %20, %0
  %7 = call i32 @putchar(i32 10)
  call void @llvm.lifetime.end.p0i8(i64 101, i8* nonnull %2) #4
  ret i32 0

8:                                                ; preds = %0, %20
  %9 = phi i64 [ %22, %20 ], [ 0, %0 ]
  %10 = phi i8 [ %24, %20 ], [ %4, %0 ]
  %11 = phi i8* [ %23, %20 ], [ %2, %0 ]
  %12 = phi i8 [ %21, %20 ], [ %4, %0 ]
  %13 = icmp eq i8 %12, 32
  %14 = icmp eq i8 %10, 32
  %15 = select i1 %13, i1 %14, i1 false
  br i1 %15, label %20, label %16

16:                                               ; preds = %8
  %17 = sext i8 %10 to i32
  %18 = call i32 @putchar(i32 %17)
  %19 = load i8, i8* %11, align 1, !tbaa !5
  br label %20

20:                                               ; preds = %8, %16
  %21 = phi i8 [ %19, %16 ], [ 32, %8 ]
  %22 = add nuw i64 %9, 1
  %23 = getelementptr inbounds [101 x i8], [101 x i8]* %1, i64 0, i64 %22
  %24 = load i8, i8* %23, align 1, !tbaa !5
  %25 = icmp eq i8 %24, 0
  br i1 %25, label %6, label %8, !llvm.loop !8
}

; Function Attrs: argmemonly mustprogress nofree nosync nounwind willreturn
declare void @llvm.lifetime.start.p0i8(i64 immarg, i8* nocapture) #1

declare i32 @gets(...) local_unnamed_addr #2

; Function Attrs: argmemonly mustprogress nofree nosync nounwind willreturn
declare void @llvm.lifetime.end.p0i8(i64 immarg, i8* nocapture) #1

; Function Attrs: nofree nounwind
declare noundef i32 @putchar(i32 noundef) local_unnamed_addr #3


!llvm.module.flags = !{!0, !1, !2, !3}
!llvm.ident = !{!4}

!0 = !{i32 1, !"wchar_size", i32 4}
!1 = !{i32 7, !"PIC Level", i32 2}
!2 = !{i32 7, !"PIE Level", i32 2}
!3 = !{i32 7, !"uwtable", i32 1}
!4 = !{!"clang version 13.0.0"}
!5 = !{!6, !6, i64 0}
!6 = !{!"omnipotent char", !7, i64 0}
!7 = !{!"Simple C/C++ TBAA"}
!8 = distinct !{!8, !9}
!9 = !{!"llvm.loop.mustprogress"}
